ccopy_reg
_reconstructor
p0
(cpandas.core.frame
DataFrame
p1
c__builtin__
object
p2
Ntp3
Rp4
(dp5
S'_metadata'
p6
(lp7
sS'_typ'
p8
S'dataframe'
p9
sS'_data'
p10
g0
(cpandas.core.internals
BlockManager
p11
g2
Ntp12
Rp13
((lp14
cpandas.indexes.base
_new_Index
p15
(cpandas.indexes.base
Index
p16
(dp17
S'data'
p18
cnumpy.core.multiarray
_reconstruct
p19
(cnumpy
ndarray
p20
(I0
tp21
S'b'
p22
tp23
Rp24
(I1
(L2L
tp25
cnumpy
dtype
p26
(S'O8'
p27
I0
I1
tp28
Rp29
(I3
S'|'
p30
NNNI-1
I-1
I63
tp31
bI00
(lp32
S'Patient ID'
p33
aS'Patient Name'
p34
atp35
bsS'name'
p36
Nstp37
Rp38
ag15
(cpandas.indexes.numeric
Int64Index
p39
(dp40
g18
g19
(g20
(I0
tp41
g22
tp42
Rp43
(I1
(L6L
tp44
g26
(S'i8'
p45
I0
I1
tp46
Rp47
(I3
S'<'
p48
NNNI-1
I-1
I0
tp49
bI00
S'\x00\x00\x00\x00\x00\x00\x00\x00\x01\x00\x00\x00\x00\x00\x00\x00\x02\x00\x00\x00\x00\x00\x00\x00\x03\x00\x00\x00\x00\x00\x00\x00\x04\x00\x00\x00\x00\x00\x00\x00\x05\x00\x00\x00\x00\x00\x00\x00'
p50
tp51
bsg36
Nstp52
Rp53
a(lp54
g19
(g20
(I0
tp55
g22
tp56
Rp57
(I1
(L1L
L6L
tp58
g26
(S'f8'
p59
I0
I1
tp60
Rp61
(I3
S'<'
p62
NNNI-1
I-1
I0
tp63
bI00
S'\x00\x00\x00\x00\x00\xc0^@\x00\x00\x00\x00\x00\x80|@\x00\x00\x00\x00\x00\xa8\x88@\x00\x00\x00\x00\x00@m@\x00\x00\x00\x00\x00\xb8\x81@\x00\x00\x00\x00\x00\xd8\x8b@'
p64
tp65
bag19
(g20
(I0
tp66
g22
tp67
Rp68
(I1
(L1L
L6L
tp69
g29
I00
(lp70
S'Alfred'
p71
aS'Beatrice'
p72
aS'Catherine'
p73
aS'Dan'
p74
aS'Ester'
p75
aS'Fanny'
p76
atp77
ba(lp78
g15
(g16
(dp79
g18
g19
(g20
(I0
tp80
g22
tp81
Rp82
(I1
(L1L
tp83
g29
I00
(lp84
g33
atp85
bsg36
Nstp86
Rp87
ag15
(g16
(dp88
g18
g19
(g20
(I0
tp89
g22
tp90
Rp91
(I1
(L1L
tp92
g29
I00
(lp93
g34
atp94
bsg36
Nstp95
Rp96
a(dp97
S'0.14.1'
p98
(dp99
S'axes'
p100
g14
sS'blocks'
p101
(lp102
(dp103
S'mgr_locs'
p104
c__builtin__
slice
p105
(I0
I1
I1
tp106
Rp107
sS'values'
p108
g57
sa(dp109
g104
g105
(I1
I2
I1
tp110
Rp111
sg108
g68
sasstp112
bsb.